target datalayout = "e-m:e-p270:32:32-p271:32:32-p272:64:64-i64:64-i128:128-f80:128-n8:16:32:64-S128"
target triple = "x86_64-unknown-linux-gnu"

%"class.arrow_vendored::date::tzdb_list" = type { %"struct.std::atomic" }
%"struct.std::atomic" = type { %"struct.std::__atomic_base" }
%"struct.std::__atomic_base" = type { ptr }
%"class.std::__cxx11::basic_string" = type { %"struct.std::__cxx11::basic_string<char>::_Alloc_hider", i64, %union.anon }
%"struct.std::__cxx11::basic_string<char>::_Alloc_hider" = type { ptr }
%union.anon = type { i64, [8 x i8] }
%"struct.arrow_vendored::date::tzdb" = type { %"class.std::__cxx11::basic_string", %"class.std::vector", %"class.std::vector.3", ptr }
%"class.std::vector" = type { %"struct.std::_Vector_base" }
%"struct.std::_Vector_base" = type { %"struct.std::_Vector_base<arrow_vendored::date::time_zone, std::allocator<arrow_vendored::date::time_zone>>::_Vector_impl" }
%"struct.std::_Vector_base<arrow_vendored::date::time_zone, std::allocator<arrow_vendored::date::time_zone>>::_Vector_impl" = type { %"struct.std::_Vector_base<arrow_vendored::date::time_zone, std::allocator<arrow_vendored::date::time_zone>>::_Vector_impl_data" }
%"struct.std::_Vector_base<arrow_vendored::date::time_zone, std::allocator<arrow_vendored::date::time_zone>>::_Vector_impl_data" = type { ptr, ptr, ptr }
%"class.std::vector.3" = type { %"struct.std::_Vector_base.4" }
%"struct.std::_Vector_base.4" = type { %"struct.std::_Vector_base<arrow_vendored::date::leap_second, std::allocator<arrow_vendored::date::leap_second>>::_Vector_impl" }
%"struct.std::_Vector_base<arrow_vendored::date::leap_second, std::allocator<arrow_vendored::date::leap_second>>::_Vector_impl" = type { %"struct.std::_Vector_base<arrow_vendored::date::leap_second, std::allocator<arrow_vendored::date::leap_second>>::_Vector_impl_data" }
%"struct.std::_Vector_base<arrow_vendored::date::leap_second, std::allocator<arrow_vendored::date::leap_second>>::_Vector_impl_data" = type { ptr, ptr, ptr }

; Function Attrs: noreturn nounwind uwtable
define linkonce_odr hidden void @__clang_call_terminate(ptr noundef %0) #11 comdat {
  %2 = call ptr @__cxa_begin_catch(ptr %0) #3
  call void @_ZSt9terminatev() #19
  unreachable
}

; Function Attrs: mustprogress nounwind uwtable
define linkonce_odr noundef i32 @_ZStanSt12memory_orderSt23__memory_order_modifier(i32 noundef %__m, i32 noundef %__mod) #4 comdat {
entry:
  %__m.addr = alloca i32, align 4
  %__mod.addr = alloca i32, align 4
  store i32 %__m, ptr %__m.addr, align 4
  store i32 %__mod, ptr %__mod.addr, align 4
  %0 = load i32, ptr %__m.addr, align 4
  %1 = load i32, ptr %__mod.addr, align 4
  %and = and i32 %0, %1
  ret i32 %and
}

; Function Attrs: mustprogress nounwind uwtable
define linkonce_odr noundef ptr @_ZNSt13__atomic_baseIPN14arrow_vendored4date4tzdbEEaSES3_(ptr noundef nonnull align 8 dereferenceable(8) %this, ptr noundef %__p) #4 comdat align 2 {
entry:
  %this.addr.i = alloca ptr, align 8
  %__p.addr.i = alloca ptr, align 8
  %__m.addr.i = alloca i32, align 4
  %__b.i = alloca i32, align 4
  %.atomictmp.i = alloca ptr, align 8
  %this.addr = alloca ptr, align 8
  %__p.addr = alloca ptr, align 8
  store ptr %this, ptr %this.addr, align 8
  store ptr %__p, ptr %__p.addr, align 8
  %this1 = load ptr, ptr %this.addr, align 8
  %0 = load ptr, ptr %__p.addr, align 8
  store ptr %this1, ptr %this.addr.i, align 8
  store ptr %0, ptr %__p.addr.i, align 8
  store i32 5, ptr %__m.addr.i, align 4
  %this1.i = load ptr, ptr %this.addr.i, align 8
  %1 = load i32, ptr %__m.addr.i, align 4
  %call.i = call noundef i32 @_ZStanSt12memory_orderSt23__memory_order_modifier(i32 noundef %1, i32 noundef 65535)
  store i32 %call.i, ptr %__b.i, align 4
  %2 = load i32, ptr %__m.addr.i, align 4
  %3 = load ptr, ptr %__p.addr.i, align 8
  store ptr %3, ptr %.atomictmp.i, align 8
  switch i32 %2, label %monotonic.i [
    i32 3, label %release.i
    i32 5, label %seqcst.i
  ]

monotonic.i:                                      ; preds = %entry
  %4 = load i64, ptr %.atomictmp.i, align 8
  store atomic i64 %4, ptr %this1.i monotonic, align 8
  br label %_ZNSt13__atomic_baseIPN14arrow_vendored4date4tzdbEE5storeES3_St12memory_order.exit

release.i:                                        ; preds = %entry
  %5 = load i64, ptr %.atomictmp.i, align 8
  store atomic i64 %5, ptr %this1.i release, align 8
  br label %_ZNSt13__atomic_baseIPN14arrow_vendored4date4tzdbEE5storeES3_St12memory_order.exit

seqcst.i:                                         ; preds = %entry
  %6 = load i64, ptr %.atomictmp.i, align 8
  store atomic i64 %6, ptr %this1.i seq_cst, align 8
  br label %_ZNSt13__atomic_baseIPN14arrow_vendored4date4tzdbEE5storeES3_St12memory_order.exit

_ZNSt13__atomic_baseIPN14arrow_vendored4date4tzdbEE5storeES3_St12memory_order.exit: ; preds = %seqcst.i, %release.i, %monotonic.i
  %7 = load ptr, ptr %__p.addr, align 8
  ret ptr %7
}

; Function Attrs: mustprogress nounwind uwtable
define linkonce_odr noundef ptr @_ZNKSt13__atomic_baseIPN14arrow_vendored4date4tzdbEEcvS3_Ev(ptr noundef nonnull align 8 dereferenceable(8) %this) #4 comdat align 2 personality ptr @__gxx_personality_v0 {
entry:
  %this.addr.i = alloca ptr, align 8
  %__m.addr.i = alloca i32, align 4
  %__b.i = alloca i32, align 4
  %atomic-temp.i = alloca ptr, align 8
  %this.addr = alloca ptr, align 8
  store ptr %this, ptr %this.addr, align 8
  %this1 = load ptr, ptr %this.addr, align 8
  store ptr %this1, ptr %this.addr.i, align 8
  store i32 5, ptr %__m.addr.i, align 4
  %this1.i = load ptr, ptr %this.addr.i, align 8
  %0 = load i32, ptr %__m.addr.i, align 4
  %call.i = invoke noundef i32 @_ZStanSt12memory_orderSt23__memory_order_modifier(i32 noundef %0, i32 noundef 65535)
          to label %invoke.cont.i unwind label %terminate.lpad.i

invoke.cont.i:                                    ; preds = %entry
  store i32 %call.i, ptr %__b.i, align 4
  %1 = load i32, ptr %__m.addr.i, align 4
  switch i32 %1, label %monotonic.i [
    i32 1, label %acquire.i
    i32 2, label %acquire.i
    i32 5, label %seqcst.i
  ]

monotonic.i:                                      ; preds = %invoke.cont.i
  %2 = load atomic i64, ptr %this1.i monotonic, align 8
  store i64 %2, ptr %atomic-temp.i, align 8
  br label %_ZNKSt13__atomic_baseIPN14arrow_vendored4date4tzdbEE4loadESt12memory_order.exit

acquire.i:                                        ; preds = %invoke.cont.i, %invoke.cont.i
  %3 = load atomic i64, ptr %this1.i acquire, align 8
  store i64 %3, ptr %atomic-temp.i, align 8
  br label %_ZNKSt13__atomic_baseIPN14arrow_vendored4date4tzdbEE4loadESt12memory_order.exit

seqcst.i:                                         ; preds = %invoke.cont.i
  %4 = load atomic i64, ptr %this1.i seq_cst, align 8
  store i64 %4, ptr %atomic-temp.i, align 8
  br label %_ZNKSt13__atomic_baseIPN14arrow_vendored4date4tzdbEE4loadESt12memory_order.exit

terminate.lpad.i:                                 ; preds = %entry
  %5 = landingpad { ptr, i32 }
          catch ptr null
  %6 = extractvalue { ptr, i32 } %5, 0
  call void @__clang_call_terminate(ptr %6) #19
  unreachable

_ZNKSt13__atomic_baseIPN14arrow_vendored4date4tzdbEE4loadESt12memory_order.exit: ; preds = %seqcst.i, %acquire.i, %monotonic.i
  %7 = load ptr, ptr %atomic-temp.i, align 8
  ret ptr %7
}

; Function Attrs: mustprogress nounwind uwtable
define linkonce_odr noundef ptr @_ZNSt6atomicIPN14arrow_vendored4date4tzdbEEaSES3_(ptr noundef nonnull align 8 dereferenceable(8) %this, ptr noundef %__p) #4 comdat align 2 {
entry:
  %this.addr = alloca ptr, align 8
  %__p.addr = alloca ptr, align 8
  store ptr %this, ptr %this.addr, align 8
  store ptr %__p, ptr %__p.addr, align 8
  %this1 = load ptr, ptr %this.addr, align 8
  %_M_b = getelementptr inbounds %"struct.std::atomic", ptr %this1, i32 0, i32 0
  %0 = load ptr, ptr %__p.addr, align 8
  %call = call noundef ptr @_ZNSt13__atomic_baseIPN14arrow_vendored4date4tzdbEEaSES3_(ptr noundef nonnull align 8 dereferenceable(8) %_M_b, ptr noundef %0) #3
  ret ptr %call
}

; Function Attrs: mustprogress nounwind uwtable
define linkonce_odr noundef ptr @_ZNKSt6atomicIPN14arrow_vendored4date4tzdbEEcvS3_Ev(ptr noundef nonnull align 8 dereferenceable(8) %this) #4 comdat align 2 {
entry:
  %this.addr = alloca ptr, align 8
  store ptr %this, ptr %this.addr, align 8
  %this1 = load ptr, ptr %this.addr, align 8
  %_M_b = getelementptr inbounds %"struct.std::atomic", ptr %this1, i32 0, i32 0
  %call = call noundef ptr @_ZNKSt13__atomic_baseIPN14arrow_vendored4date4tzdbEEcvS3_Ev(ptr noundef nonnull align 8 dereferenceable(8) %_M_b) #3
  ret ptr %call
}

; Function Attrs: mustprogress nounwind uwtable
define void @_ZN14arrow_vendored4date9tzdb_list10push_frontEPNS0_4tzdbE(ptr noundef nonnull align 8 dereferenceable(8) %this, ptr noundef %tzdb) #4 align 2 {
entry:
  %this.addr = alloca ptr, align 8
  %tzdb.addr = alloca ptr, align 8
  store ptr %this, ptr %this.addr, align 8
  store ptr %tzdb, ptr %tzdb.addr, align 8
  %this1 = load ptr, ptr %this.addr, align 8
  %head_ = getelementptr inbounds %"class.arrow_vendored::date::tzdb_list", ptr %this1, i32 0, i32 0
  %call = call noundef ptr @_ZNKSt6atomicIPN14arrow_vendored4date4tzdbEEcvS3_Ev(ptr noundef nonnull align 8 dereferenceable(8) %head_) #3
  %0 = load ptr, ptr %tzdb.addr, align 8
  %next = getelementptr inbounds %"struct.arrow_vendored::date::tzdb", ptr %0, i32 0, i32 3
  store ptr %call, ptr %next, align 8
  %1 = load ptr, ptr %tzdb.addr, align 8
  %head_2 = getelementptr inbounds %"class.arrow_vendored::date::tzdb_list", ptr %this1, i32 0, i32 0
  %call3 = call noundef ptr @_ZNSt6atomicIPN14arrow_vendored4date4tzdbEEaSES3_(ptr noundef nonnull align 8 dereferenceable(8) %head_2, ptr noundef %1) #3
  ret void
}