; Function Attrs: mustprogress nofree norecurse nounwind willreturn memory(argmem: readwrite) uwtable
define void @_ZN14arrow_vendored4date9tzdb_list10push_frontEPNS0_4tzdbE(ptr nocapture noundef nonnull align 8 dereferenceable(8) %this, ptr noundef %tzdb) local_unnamed_addr #5 align 2 personality ptr @__gxx_personality_v0 {
entry:
  %0 = load atomic i64, ptr %this seq_cst, align 8
  %1 = inttoptr i64 %0 to ptr
  %next = getelementptr inbounds i8, ptr %tzdb, i64 80
  store ptr %1, ptr %next, align 8
  %2 = ptrtoint ptr %tzdb to i64
  store atomic i64 %2, ptr %this seq_cst, align 8
  ret void
}